; ModuleID = '28/1338.c'
source_filename = "28/1338.c"
target datalayout = "e-m:e-p270:32:32-p271:32:32-p272:64:64-i64:64-f80:128-n8:16:32:64-S128"
target triple = "x86_64-pc-linux-gnu"

@sums = common dso_local global [310 x i32] zeroinitializer, align 16
@.str = private unnamed_addr constant [4 x i8] c"%d,\00", align 1
@.str.1 = private unnamed_addr constant [3 x i8] c"%d\00", align 1

; Function Attrs: noinline nounwind uwtable
define dso_local void @main() #0 {
  %1 = alloca i32, align 4
  %2 = alloca i32, align 4
  %3 = alloca i32, align 4
  %4 = alloca i8, align 1
  store i32 0, i32* %1, align 4
  store i32 0, i32* %3, align 4
  br label %5

5:                                                ; preds = %43, %0
  %6 = call i32 @getchar()
  %7 = trunc i32 %6 to i8
  store i8 %7, i8* %4, align 1
  %8 = icmp ne i8 %7, 0
  br i1 %8, label %9, label %44

9:                                                ; preds = %5
  %10 = load i8, i8* %4, align 1
  %11 = sext i8 %10 to i32
  %12 = icmp eq i32 %11, 0
  br i1 %12, label %17, label %13

13:                                               ; preds = %9
  %14 = load i8, i8* %4, align 1
  %15 = sext i8 %14 to i32
  %16 = icmp eq i32 %15, 10
  br i1 %16, label %17, label %24

17:                                               ; preds = %13, %9
  %18 = load i32, i32* %3, align 4
  %19 = load i32, i32* %1, align 4
  %20 = sext i32 %19 to i64
  %21 = getelementptr inbounds [310 x i32], [310 x i32]* @sums, i64 0, i64 %20
  store i32 %18, i32* %21, align 4
  %22 = load i32, i32* %1, align 4
  %23 = add nsw i32 %22, 1
  store i32 %23, i32* %1, align 4
  br label %44

24:                                               ; preds = %13
  %25 = load i8, i8* %4, align 1
  %26 = sext i8 %25 to i32
  %27 = icmp eq i32 %26, 32
  br i1 %27, label %28, label %39

28:                                               ; preds = %24
  %29 = load i32, i32* %3, align 4
  %30 = icmp ne i32 %29, 0
  br i1 %30, label %31, label %38

31:                                               ; preds = %28
  %32 = load i32, i32* %3, align 4
  %33 = load i32, i32* %1, align 4
  %34 = sext i32 %33 to i64
  %35 = getelementptr inbounds [310 x i32], [310 x i32]* @sums, i64 0, i64 %34
  store i32 %32, i32* %35, align 4
  %36 = load i32, i32* %1, align 4
  %37 = add nsw i32 %36, 1
  store i32 %37, i32* %1, align 4
  br label %38

38:                                               ; preds = %31, %28
  store i32 0, i32* %3, align 4
  br label %42

39:                                               ; preds = %24
  %40 = load i32, i32* %3, align 4
  %41 = add nsw i32 %40, 1
  store i32 %41, i32* %3, align 4
  br label %42

42:                                               ; preds = %39, %38
  br label %43

43:                                               ; preds = %42
  br label %5

44:                                               ; preds = %17, %5
  store i32 0, i32* %2, align 4
  br label %45

45:                                               ; preds = %56, %44
  %46 = load i32, i32* %2, align 4
  %47 = load i32, i32* %1, align 4
  %48 = sub nsw i32 %47, 1
  %49 = icmp slt i32 %46, %48
  br i1 %49, label %50, label %59

50:                                               ; preds = %45
  %51 = load i32, i32* %2, align 4
  %52 = sext i32 %51 to i64
  %53 = getelementptr inbounds [310 x i32], [310 x i32]* @sums, i64 0, i64 %52
  %54 = load i32, i32* %53, align 4
  %55 = call i32 (i8*, ...) @printf(i8* getelementptr inbounds ([4 x i8], [4 x i8]* @.str, i64 0, i64 0), i32 %54)
  br label %56

56:                                               ; preds = %50
  %57 = load i32, i32* %2, align 4
  %58 = add nsw i32 %57, 1
  store i32 %58, i32* %2, align 4
  br label %45

59:                                               ; preds = %45
  %60 = load i32, i32* %1, align 4
  %61 = sub nsw i32 %60, 1
  %62 = sext i32 %61 to i64
  %63 = getelementptr inbounds [310 x i32], [310 x i32]* @sums, i64 0, i64 %62
  %64 = load i32, i32* %63, align 4
  %65 = call i32 (i8*, ...) @printf(i8* getelementptr inbounds ([3 x i8], [3 x i8]* @.str.1, i64 0, i64 0), i32 %64)
  ret void
}

declare dso_local i32 @getchar() #1

declare dso_local i32 @printf(i8*, ...) #1


!llvm.module.flags = !{!0}
!llvm.ident = !{!1}

!0 = !{i32 1, !"wchar_size", i32 4}
!1 = !{!"clang version 10.0.0-4ubuntu1 "}
